target datalayout = "e-m:e-p270:32:32-p271:32:32-p272:64:64-i64:64-i128:128-f80:128-n8:16:32:64-S128"
target triple = "x86_64-unknown-linux-gnu"

%class.rational = type { %class.mpq }
%class.mpq = type { %class.mpz, %class.mpz }
%class.mpz = type { i32, i8, ptr }
%class.th_rewriter = type { ptr, %class.params_ref }
%class.params_ref = type { ptr }
%class.rewriter_tpl = type { %class.rewriter_core, ptr, i32, %class.ptr_vector.1, %class.var_shifter, %class.inv_var_shifter, %class.obj_ref, %class.obj_ref.10, %class.obj_ref.10, %class.svector.11 }
%class.rewriter_core = type { ptr, ptr, i8, i8, %class.ptr_vector, ptr, %class.svector, %class.ref_vector, %class.ptr_vector, ptr, %class.ref_vector.3, %class.obj_hashtable, ptr, i32, %class.svector.8 }
%class.svector = type { %class.vector.0 }
%class.vector.0 = type { ptr }
%class.ref_vector = type { %class.ref_vector_core }
%class.ref_vector_core = type { %class.ref_manager_wrapper, %class.ptr_vector.1 }
%class.ref_manager_wrapper = type { ptr }
%class.ptr_vector = type { %class.vector }
%class.vector = type { ptr }
%class.ref_vector.3 = type { %class.ref_vector_core.4 }
%class.ref_vector_core.4 = type { %class.ref_manager_wrapper.5, %class.ptr_vector.6 }
%class.ref_manager_wrapper.5 = type { ptr }
%class.ptr_vector.6 = type { %class.vector.7 }
%class.vector.7 = type { ptr }
%class.obj_hashtable = type { %class.core_hashtable.base, [4 x i8] }
%class.core_hashtable.base = type <{ ptr, i32, i32, i32 }>
%class.svector.8 = type { %class.vector.9 }
%class.vector.9 = type { ptr }
%class.ptr_vector.1 = type { %class.vector.2 }
%class.vector.2 = type { ptr }
%class.var_shifter = type <{ %class.var_shifter_core, i32, i32, i32, [4 x i8] }>
%class.var_shifter_core = type { %class.rewriter_core }
%class.inv_var_shifter = type <{ %class.var_shifter_core, i32, [4 x i8] }>
%class.obj_ref = type { ptr, ptr }
%class.obj_ref.10 = type { ptr, ptr }
%class.svector.11 = type { %class.vector.12 }
%class.vector.12 = type { ptr }
%"struct.(anonymous namespace)::th_rewriter_cfg" = type <{ %class.bool_rewriter, %class.arith_rewriter, %class.bv_rewriter, %class.array_rewriter, %class.datatype_rewriter, %class.fpa_rewriter, %class.dl_rewriter, %class.pb_rewriter, %class.seq_rewriter, %class.char_rewriter, %class.recfun_rewriter, %class.arith_util, %class.bv_util, %class.der, %class.expr_safe_replace, %class.ref_vector, %class.obj_ref.71, ptr, i64, i8, [7 x i8], %class.ast_fast_mark, %class.obj_mark, i8, [3 x i8], i32, i8, i8, i8, i8, i8, i8, i8, i8, i8, [7 x i8] }>
%class.bool_rewriter = type { ptr, i8, i8, i8, i8, i8, i8, i32, i8, i32, i32, i8, %class.ptr_vector.1, %class.ptr_vector.1, %class.svector.11, %class.svector.11 }
%class.arith_rewriter = type { %class.poly_rewriter.base, i8, i8, i8, i8, i8, i8, i8, i8, i32 }
%class.poly_rewriter.base = type <{ %class.arith_rewriter_core.base, [5 x i8], ptr, %class.obj_map, i8, i8, [2 x i8], i32, i8, i8, i8, i8 }>
%class.arith_rewriter_core.base = type <{ ptr, %class.arith_util, %class.scoped_ptr, i8, i8, i8 }>
%class.scoped_ptr = type { ptr }
%class.obj_map = type { %class.core_hashtable.13 }
%class.core_hashtable.13 = type <{ ptr, i32, i32, i32, [4 x i8] }>
%class.bv_rewriter = type <{ %class.poly_rewriter.base.16, [4 x i8], %class.mk_extract_proc, %class.arith_util, i8, i8, i8, i8, i8, i8, i8, i8, i8, i8, i8, i8, i8, [3 x i8] }>
%class.poly_rewriter.base.16 = type <{ %class.bv_rewriter_core, ptr, %class.obj_map, i8, i8, [2 x i8], i32, i8, i8, i8, i8 }>
%class.bv_rewriter_core = type { ptr, %class.bv_util, %class.obj_ref }
%class.mk_extract_proc = type { ptr, i32, i32, ptr, ptr }
%class.array_rewriter = type <{ %class.array_util, i8, i8, i8, i8, i8, i8, [2 x i8] }>
%class.array_util = type { %class.array_recognizers, ptr }
%class.array_recognizers = type { i32 }
%class.datatype_rewriter = type { %"class.datatype::util" }
%"class.datatype::util" = type { ptr, i32, ptr, %class.obj_map.17, %class.obj_map.22, %class.obj_map.27, %class.obj_map.32, %class.obj_map.32, %class.obj_map.32, %class.obj_map.37, %class.obj_map.37, %class.obj_map.37, %class.ref_vector.42, %class.ref_vector_core.47, %class.ptr_vector.50, i32, %class.ptr_vector.52 }
%class.obj_map.17 = type { %class.core_hashtable.18 }
%class.core_hashtable.18 = type <{ ptr, i32, i32, i32, [4 x i8] }>
%class.obj_map.22 = type { %class.core_hashtable.23 }
%class.core_hashtable.23 = type <{ ptr, i32, i32, i32, [4 x i8] }>
%class.obj_map.27 = type { %class.core_hashtable.28 }
%class.core_hashtable.28 = type <{ ptr, i32, i32, i32, [4 x i8] }>
%class.obj_map.32 = type { %class.core_hashtable.33 }
%class.core_hashtable.33 = type <{ ptr, i32, i32, i32, [4 x i8] }>
%class.obj_map.37 = type { %class.core_hashtable.38 }
%class.core_hashtable.38 = type <{ ptr, i32, i32, i32, [4 x i8] }>
%class.ref_vector.42 = type { %class.ref_vector_core.43 }
%class.ref_vector_core.43 = type { %class.ref_manager_wrapper.44, %class.ptr_vector.45 }
%class.ref_manager_wrapper.44 = type { ptr }
%class.ptr_vector.45 = type { %class.vector.46 }
%class.vector.46 = type { ptr }
%class.ref_vector_core.47 = type { %class.ptr_vector.48 }
%class.ptr_vector.48 = type { %class.vector.49 }
%class.vector.49 = type { ptr }
%class.ptr_vector.50 = type { %class.vector.51 }
%class.vector.51 = type { ptr }
%class.ptr_vector.52 = type { %class.vector.53 }
%class.vector.53 = type { ptr }
%class.fpa_rewriter = type <{ %class.fpa_util, ptr, i8, [7 x i8] }>
%class.fpa_util = type { ptr, ptr, i32, %class.arith_util, %class.bv_util }
%class.dl_rewriter = type { %"class.datalog::dl_decl_util" }
%"class.datalog::dl_decl_util" = type <{ ptr, %class.scoped_ptr.54, %class.scoped_ptr.55, i32, [4 x i8] }>
%class.scoped_ptr.54 = type { ptr }
%class.scoped_ptr.55 = type { ptr }
%class.pb_rewriter = type { %class.pb_util, %class.vector.56, %class.ptr_vector.1 }
%class.pb_util = type { ptr, i32, %class.vector.56, %class.vector.57, %class.rational }
%class.vector.57 = type { ptr }
%class.vector.56 = type { ptr }
%class.seq_rewriter = type <{ %class.seq_util, %class.arith_util, %class.bool_rewriter, %class.re2automaton, %"class.seq_rewriter::op_cache", %class.ref_vector, %class.ref_vector, %class.ref_vector, i8, [7 x i8] }>
%class.seq_util = type { ptr, ptr, ptr, i32, [4 x i8], %"class.seq_util::str", %"class.seq_util::rex" }
%"class.seq_util::str" = type <{ ptr, ptr, i32, [4 x i8] }>
%"class.seq_util::rex" = type { ptr, ptr, i32, %class.vector.58, %class.ref_vector, %"struct.seq_util::rex::info", %"struct.seq_util::rex::info" }
%class.vector.58 = type { ptr }
%"struct.seq_util::rex::info" = type { i32, i8, i32, i32 }
%class.re2automaton = type { ptr, %class.sym_expr_manager, %class.seq_util, %class.scoped_ptr.59, %class.scoped_ptr.60, %class.scoped_ptr.61 }
%class.sym_expr_manager = type { i8 }
%class.scoped_ptr.59 = type { ptr }
%class.scoped_ptr.60 = type { ptr }
%class.scoped_ptr.61 = type { ptr }
%"class.seq_rewriter::op_cache" = type { i32, %class.ref_vector, %class.hashtable }
%class.hashtable = type { %class.core_hashtable.base.63, [4 x i8] }
%class.core_hashtable.base.63 = type <{ ptr, i32, i32, i32 }>
%class.char_rewriter = type { ptr, ptr }
%class.recfun_rewriter = type { ptr, %"class.recfun::util" }
%"class.recfun::util" = type { ptr, i32, ptr }
%class.arith_util = type { ptr, ptr }
%class.bv_util = type { %class.bv_recognizers, ptr, ptr }
%class.bv_recognizers = type { i32 }
%class.der = type { ptr, %class.var_subst, %class.ref_buffer, %class.ref_vector, %class.svector.65, %class.ptr_vector.67, %class.svector.11, %class.ref_vector, %class.ref_vector }
%class.var_subst = type { %class.beta_reducer, i8, [7 x i8] }
%class.beta_reducer = type <{ %class.rewriter_tpl.64, %struct.beta_reducer_cfg, [7 x i8] }>
%class.rewriter_tpl.64 = type { %class.rewriter_core, ptr, i32, %class.ptr_vector.1, %class.var_shifter, %class.inv_var_shifter, %class.obj_ref, %class.obj_ref.10, %class.obj_ref.10, %class.svector.11 }
%struct.beta_reducer_cfg = type { i8 }
%class.ref_buffer = type { %class.ref_buffer_core }
%class.ref_buffer_core = type { %class.ref_manager_wrapper, %class.ptr_buffer }
%class.ptr_buffer = type { %class.buffer }
%class.buffer = type { ptr, i32, i32, [16 x %"union.std::aligned_storage<8, 8>::type"] }
%"union.std::aligned_storage<8, 8>::type" = type { [8 x i8] }
%class.svector.65 = type { %class.vector.66 }
%class.vector.66 = type { ptr }
%class.ptr_vector.67 = type { %class.vector.68 }
%class.vector.68 = type { ptr }
%class.expr_safe_replace = type { ptr, %class.ref_vector, %class.ref_vector, %class.svector.11, %class.ptr_vector.1, %class.ptr_vector.1, %class.ref_vector, %"class.std::unordered_map" }
%"class.std::unordered_map" = type { %"class.std::_Hashtable" }
%"class.std::_Hashtable" = type { ptr, i64, %"struct.std::__detail::_Hash_node_base", i64, %"struct.std::__detail::_Prime_rehash_policy", ptr }
%"struct.std::__detail::_Hash_node_base" = type { ptr }
%"struct.std::__detail::_Prime_rehash_policy" = type { float, i64 }
%class.obj_ref.71 = type { ptr, ptr }
%class.ast_fast_mark = type { %class.ptr_buffer.72 }
%class.ptr_buffer.72 = type { %class.buffer.73 }
%class.buffer.73 = type { ptr, i32, i32, [16 x %"union.std::aligned_storage<8, 8>::type"] }
%class.obj_mark = type { %struct.default_t2uint, %class.bit_vector }
%struct.default_t2uint = type { i8 }
%class.bit_vector = type { i32, i32, ptr }

; Function Attrs: mustprogress nounwind uwtable
define linkonce_odr hidden void @_ZN6vectorIjLb0EjE5resetEv(ptr noundef nonnull align 8 dereferenceable(8) %this) #5 comdat align 2 {
entry:
  %this.addr = alloca ptr, align 8
  store ptr %this, ptr %this.addr, align 8
  %this1 = load ptr, ptr %this.addr, align 8
  %m_data = getelementptr inbounds %class.vector.12, ptr %this1, i32 0, i32 0
  %0 = load ptr, ptr %m_data, align 8
  %tobool = icmp ne ptr %0, null
  br i1 %tobool, label %if.then, label %if.end

if.then:                                          ; preds = %entry
  %m_data2 = getelementptr inbounds %class.vector.12, ptr %this1, i32 0, i32 0
  %1 = load ptr, ptr %m_data2, align 8
  %arrayidx = getelementptr inbounds i32, ptr %1, i64 -1
  store i32 0, ptr %arrayidx, align 4
  br label %if.end

if.end:                                           ; preds = %if.then, %entry
  ret void
}

; Function Attrs: mustprogress nounwind uwtable
define linkonce_odr hidden void @_ZN6vectorIP4exprLb0EjE5resetEv(ptr noundef nonnull align 8 dereferenceable(8) %this) #5 comdat align 2 {
entry:
  %this.addr = alloca ptr, align 8
  store ptr %this, ptr %this.addr, align 8
  %this1 = load ptr, ptr %this.addr, align 8
  %m_data = getelementptr inbounds %class.vector.2, ptr %this1, i32 0, i32 0
  %0 = load ptr, ptr %m_data, align 8
  %tobool = icmp ne ptr %0, null
  br i1 %tobool, label %if.then, label %if.end

if.then:                                          ; preds = %entry
  %m_data2 = getelementptr inbounds %class.vector.2, ptr %this1, i32 0, i32 0
  %1 = load ptr, ptr %m_data2, align 8
  %arrayidx = getelementptr inbounds i32, ptr %1, i64 -1
  store i32 0, ptr %arrayidx, align 4
  br label %if.end

if.end:                                           ; preds = %if.then, %entry
  ret void
}

; Function Attrs: mustprogress nounwind uwtable
define internal void @_ZN12_GLOBAL__N_115th_rewriter_cfg5resetEv(ptr noundef nonnull align 8 dereferenceable(2585) %this) #5 align 2 {
entry:
  %this.addr = alloca ptr, align 8
  store ptr %this, ptr %this.addr, align 8
  %this1 = load ptr, ptr %this.addr, align 8
  %m_subst = getelementptr inbounds %"struct.(anonymous namespace)::th_rewriter_cfg", ptr %this1, i32 0, i32 17
  store ptr null, ptr %m_subst, align 8
  ret void
}

; Function Attrs: mustprogress nounwind uwtable
define internal void @_ZN12_GLOBAL__N_115th_rewriter_cfg16set_substitutionEP17expr_substitution(ptr noundef nonnull align 8 dereferenceable(2585) %this, ptr noundef %s) #5 align 2 {
entry:
  %this.addr = alloca ptr, align 8
  %s.addr = alloca ptr, align 8
  store ptr %this, ptr %this.addr, align 8
  store ptr %s, ptr %s.addr, align 8
  %this1 = load ptr, ptr %this.addr, align 8
  call void @_ZN12_GLOBAL__N_115th_rewriter_cfg5resetEv(ptr noundef nonnull align 8 dereferenceable(2585) %this1)
  %0 = load ptr, ptr %s.addr, align 8
  %m_subst = getelementptr inbounds %"struct.(anonymous namespace)::th_rewriter_cfg", ptr %this1, i32 0, i32 17
  store ptr %0, ptr %m_subst, align 8
  %m_new_subst = getelementptr inbounds %"struct.(anonymous namespace)::th_rewriter_cfg", ptr %this1, i32 0, i32 19
  store i8 1, ptr %m_new_subst, align 8
  %m_new_mark = getelementptr inbounds %"struct.(anonymous namespace)::th_rewriter_cfg", ptr %this1, i32 0, i32 23
  store i8 1, ptr %m_new_mark, align 8
  ret void
}

; Function Attrs: mustprogress nounwind uwtable
define internal noundef nonnull align 8 dereferenceable(2585) ptr @_ZN12rewriter_tplIN12_GLOBAL__N_115th_rewriter_cfgEE3cfgEv(ptr noundef nonnull align 8 dereferenceable(536) %this) #5 align 2 {
entry:
  %this.addr = alloca ptr, align 8
  store ptr %this, ptr %this.addr, align 8
  %this1 = load ptr, ptr %this.addr, align 8
  %m_cfg = getelementptr inbounds %class.rewriter_tpl, ptr %this1, i32 0, i32 1
  %0 = load ptr, ptr %m_cfg, align 8
  ret ptr %0
}

; Function Attrs: mustprogress uwtable
define internal void @_ZN12rewriter_tplIN12_GLOBAL__N_115th_rewriter_cfgEE5resetEv(ptr noundef nonnull align 8 dereferenceable(536) %this) #4 align 2 {
entry:
  %this.addr = alloca ptr, align 8
  store ptr %this, ptr %this.addr, align 8
  %this1 = load ptr, ptr %this.addr, align 8
  %m_cfg = getelementptr inbounds %class.rewriter_tpl, ptr %this1, i32 0, i32 1
  %0 = load ptr, ptr %m_cfg, align 8
  call void @_ZN12_GLOBAL__N_115th_rewriter_cfg5resetEv(ptr noundef nonnull align 8 dereferenceable(2585) %0)
  call void @_ZN13rewriter_core5resetEv(ptr noundef nonnull align 8 dereferenceable(144) %this1)
  %m_bindings = getelementptr inbounds %class.rewriter_tpl, ptr %this1, i32 0, i32 3
  call void @_ZN6vectorIP4exprLb0EjE5resetEv(ptr noundef nonnull align 8 dereferenceable(8) %m_bindings)
  %m_shifts = getelementptr inbounds %class.rewriter_tpl, ptr %this1, i32 0, i32 9
  call void @_ZN6vectorIjLb0EjE5resetEv(ptr noundef nonnull align 8 dereferenceable(8) %m_shifts)
  %m_shifter = getelementptr inbounds %class.rewriter_tpl, ptr %this1, i32 0, i32 4
  call void @_ZN13rewriter_core5resetEv(ptr noundef nonnull align 8 dereferenceable(144) %m_shifter)
  %m_inv_shifter = getelementptr inbounds %class.rewriter_tpl, ptr %this1, i32 0, i32 5
  call void @_ZN13rewriter_core5resetEv(ptr noundef nonnull align 8 dereferenceable(144) %m_inv_shifter)
  ret void
}

; Function Attrs: mustprogress uwtable
define hidden void @_ZN11th_rewriter16set_substitutionEP17expr_substitution(ptr noundef nonnull align 8 dereferenceable(16) %this, ptr noundef %s) #4 align 2 {
entry:
  %this.addr = alloca ptr, align 8
  %s.addr = alloca ptr, align 8
  store ptr %this, ptr %this.addr, align 8
  store ptr %s, ptr %s.addr, align 8
  %this1 = load ptr, ptr %this.addr, align 8
  %m_imp = getelementptr inbounds %class.th_rewriter, ptr %this1, i32 0, i32 0
  %0 = load ptr, ptr %m_imp, align 8
  call void @_ZN12rewriter_tplIN12_GLOBAL__N_115th_rewriter_cfgEE5resetEv(ptr noundef nonnull align 8 dereferenceable(536) %0)
  %m_imp2 = getelementptr inbounds %class.th_rewriter, ptr %this1, i32 0, i32 0
  %1 = load ptr, ptr %m_imp2, align 8
  %call = call noundef nonnull align 8 dereferenceable(2585) ptr @_ZN12rewriter_tplIN12_GLOBAL__N_115th_rewriter_cfgEE3cfgEv(ptr noundef nonnull align 8 dereferenceable(536) %1)
  %2 = load ptr, ptr %s.addr, align 8
  call void @_ZN12_GLOBAL__N_115th_rewriter_cfg16set_substitutionEP17expr_substitution(ptr noundef nonnull align 8 dereferenceable(2585) %call, ptr noundef %2)
  ret void
}