; Function Attrs: mustprogress uwtable
define hidden void @_ZN11th_rewriter16set_substitutionEP17expr_substitution(ptr nocapture noundef nonnull readonly align 8 dereferenceable(16) %this, ptr noundef %s) local_unnamed_addr #3 align 2 {
entry:
  %0 = load ptr, ptr %this, align 8
  %m_cfg.i = getelementptr inbounds i8, ptr %0, i64 144
  %1 = load ptr, ptr %m_cfg.i, align 8
  %m_subst.i.i = getelementptr inbounds i8, ptr %1, i64 2376
  store ptr null, ptr %m_subst.i.i, align 8
  tail call void @_ZN13rewriter_core5resetEv(ptr noundef nonnull align 8 dereferenceable(144) %0)
  %m_bindings.i = getelementptr inbounds i8, ptr %0, i64 160
  %2 = load ptr, ptr %m_bindings.i, align 8
  %tobool.not.i.i = icmp eq ptr %2, null
  br i1 %tobool.not.i.i, label %_ZN6vectorIP4exprLb0EjE5resetEv.exit.i, label %if.then.i.i

if.then.i.i:                                      ; preds = %entry
  %arrayidx.i.i = getelementptr inbounds i8, ptr %2, i64 -4
  store i32 0, ptr %arrayidx.i.i, align 4
  br label %_ZN6vectorIP4exprLb0EjE5resetEv.exit.i

_ZN6vectorIP4exprLb0EjE5resetEv.exit.i:           ; preds = %if.then.i.i, %entry
  %m_shifts.i = getelementptr inbounds i8, ptr %0, i64 528
  %3 = load ptr, ptr %m_shifts.i, align 8
  %tobool.not.i1.i = icmp eq ptr %3, null
  br i1 %tobool.not.i1.i, label %_ZN12rewriter_tplIN12_GLOBAL__N_115th_rewriter_cfgEE5resetEv.exit, label %if.then.i2.i

if.then.i2.i:                                     ; preds = %_ZN6vectorIP4exprLb0EjE5resetEv.exit.i
  %arrayidx.i3.i = getelementptr inbounds i8, ptr %3, i64 -4
  store i32 0, ptr %arrayidx.i3.i, align 4
  br label %_ZN12rewriter_tplIN12_GLOBAL__N_115th_rewriter_cfgEE5resetEv.exit

_ZN12rewriter_tplIN12_GLOBAL__N_115th_rewriter_cfgEE5resetEv.exit: ; preds = %_ZN6vectorIP4exprLb0EjE5resetEv.exit.i, %if.then.i2.i
  %m_shifter.i = getelementptr inbounds i8, ptr %0, i64 168
  tail call void @_ZN13rewriter_core5resetEv(ptr noundef nonnull align 8 dereferenceable(144) %m_shifter.i)
  %m_inv_shifter.i = getelementptr inbounds i8, ptr %0, i64 328
  tail call void @_ZN13rewriter_core5resetEv(ptr noundef nonnull align 8 dereferenceable(144) %m_inv_shifter.i)
  %4 = load ptr, ptr %this, align 8
  %5 = getelementptr i8, ptr %4, i64 144
  %.val = load ptr, ptr %5, align 8
  %m_subst.i.i1 = getelementptr inbounds i8, ptr %.val, i64 2376
  store ptr %s, ptr %m_subst.i.i1, align 8
  %m_new_subst.i = getelementptr inbounds i8, ptr %.val, i64 2392
  store i8 1, ptr %m_new_subst.i, align 8
  %m_new_mark.i = getelementptr inbounds i8, ptr %.val, i64 2568
  store i8 1, ptr %m_new_mark.i, align 8
  ret void
}